target datalayout = "e-m:e-p270:32:32-p271:32:32-p272:64:64-i64:64-i128:128-f80:128-n8:16:32:64-S128"
target triple = "x86_64-pc-linux-gnu"

@sir_handle = internal global ptr null, align 8
@proto_register_irsir.ett = internal global [1 x ptr] [ptr @ett_sir], align 8
@.str.16 = private unnamed_addr constant [16 x i8] c"Serial Infrared\00", align 1
@.str.17 = private unnamed_addr constant [4 x i8] c"SIR\00", align 1
@.str.18 = private unnamed_addr constant [4 x i8] c"sir\00", align 1
@proto_sir = internal global i32 0, align 4

; Function Attrs: null_pointer_is_valid sspstrong uwtable
define hidden void @proto_register_irsir() #0 {
  %1 = alloca ptr, align 8
  call void @llvm.lifetime.start.p0(i64 8, ptr %1) #4
  %2 = call i32 @proto_register_protocol(ptr noundef @.str.16, ptr noundef @.str.17, ptr noundef @.str.18)
  store i32 %2, ptr @proto_sir, align 4
  %3 = load i32, ptr @proto_sir, align 4
  %4 = call ptr @register_dissector(ptr noundef @.str.18, ptr noundef @dissect_sir, i32 noundef %3)
  store ptr %4, ptr @sir_handle, align 8
  call void @proto_register_subtree_array(ptr noundef @proto_register_irsir.ett, i32 noundef 1)
  %5 = load i32, ptr @proto_sir, align 4
  call void @proto_register_field_array(i32 noundef %5, ptr noundef @proto_register_irsir.hf_sir, i32 noundef 6)
  %6 = load i32, ptr @proto_sir, align 4
  %7 = call ptr @expert_register_protocol(i32 noundef %6)
  store ptr %7, ptr %1, align 8
  %8 = load ptr, ptr %1, align 8
  call void @expert_register_field_array(ptr noundef %8, ptr noundef @proto_register_irsir.ei, i32 noundef 1)
  call void @llvm.lifetime.end.p0(i64 8, ptr %1) #4
  ret void
}