; Function Attrs: null_pointer_is_valid sspstrong uwtable
define hidden void @proto_register_irsir() local_unnamed_addr #0 {
  %1 = tail call i32 @proto_register_protocol(ptr noundef nonnull @.str.16, ptr noundef nonnull @.str.17, ptr noundef nonnull @.str.18)
  store i32 %1, ptr @proto_sir, align 4
  %2 = tail call ptr @register_dissector(ptr noundef nonnull @.str.18, ptr noundef nonnull @dissect_sir, i32 noundef %1)
  store ptr %2, ptr @sir_handle, align 8
  tail call void @proto_register_subtree_array(ptr noundef nonnull @proto_register_irsir.ett, i32 noundef 1)
  %3 = load i32, ptr @proto_sir, align 4
  tail call void @proto_register_field_array(i32 noundef %3, ptr noundef nonnull @proto_register_irsir.hf_sir, i32 noundef 6)
  %4 = load i32, ptr @proto_sir, align 4
  %5 = tail call ptr @expert_register_protocol(i32 noundef %4)
  tail call void @expert_register_field_array(ptr noundef %5, ptr noundef nonnull @proto_register_irsir.ei, i32 noundef 1)
  ret void
}